; Function Attrs: mustprogress uwtable
define noundef zeroext i1 @_ZN9grpc_core17ChannelIdleFilter16StartTransportOpEP17grpc_transport_op(ptr noundef nonnull align 8 dereferenceable(64) %this, ptr nocapture noundef readonly %op) unnamed_addr #3 align 2 {
entry:
  %disconnect_with_error = getelementptr inbounds i8, ptr %op, i64 24
  %0 = load i64, ptr %disconnect_with_error, align 8
  %cmp.i = icmp eq i64 %0, 0
  br i1 %cmp.i, label %if.end, label %if.then

if.then:                                          ; preds = %entry
  %vtable = load ptr, ptr %this, align 8
  %vfn = getelementptr inbounds i8, ptr %vtable, i64 48
  %1 = load ptr, ptr %vfn, align 8
  tail call void %1(ptr noundef nonnull align 8 dereferenceable(64) %this)
  br label %if.end

if.end:                                           ; preds = %if.then, %entry
  ret i1 false
}